target datalayout = "e-m:e-p270:32:32-p271:32:32-p272:64:64-i64:64-i128:128-f80:128-n8:16:32:64-S128"
target triple = "x86_64-pc-linux-gnu"

%struct.mbedtls_sha256_context = type { [64 x i8], [2 x i32], [8 x i32], i32 }

; Function Attrs: nounwind uwtable
define internal i64 @mbedtls_internal_sha256_process_many(ptr noundef %0, ptr noundef %1, i64 noundef %2) #0 {
  %4 = alloca i64, align 8
  %5 = alloca ptr, align 8
  %6 = alloca ptr, align 8
  %7 = alloca i64, align 8
  %8 = alloca i64, align 8
  %9 = alloca i32, align 4
  store ptr %0, ptr %5, align 8, !tbaa !3
  store ptr %1, ptr %6, align 8, !tbaa !14
  store i64 %2, ptr %7, align 8, !tbaa !26
  call void @llvm.lifetime.start.p0(i64 8, ptr %8) #10
  store i64 0, ptr %8, align 8, !tbaa !26
  br label %10

10:                                               ; preds = %19, %3
  %11 = load i64, ptr %7, align 8, !tbaa !26
  %12 = icmp uge i64 %11, 64
  br i1 %12, label %13, label %26

13:                                               ; preds = %10
  %14 = load ptr, ptr %5, align 8, !tbaa !3
  %15 = load ptr, ptr %6, align 8, !tbaa !14
  %16 = call i32 @mbedtls_internal_sha256_process(ptr noundef %14, ptr noundef %15)
  %17 = icmp ne i32 %16, 0
  br i1 %17, label %18, label %19

18:                                               ; preds = %13
  store i64 0, ptr %4, align 8
  store i32 1, ptr %9, align 4
  br label %28

19:                                               ; preds = %13
  %20 = load ptr, ptr %6, align 8, !tbaa !14
  %21 = getelementptr inbounds i8, ptr %20, i64 64
  store ptr %21, ptr %6, align 8, !tbaa !14
  %22 = load i64, ptr %7, align 8, !tbaa !26
  %23 = sub i64 %22, 64
  store i64 %23, ptr %7, align 8, !tbaa !26
  %24 = load i64, ptr %8, align 8, !tbaa !26
  %25 = add i64 %24, 64
  store i64 %25, ptr %8, align 8, !tbaa !26
  br label %10, !llvm.loop !29

26:                                               ; preds = %10
  %27 = load i64, ptr %8, align 8, !tbaa !26
  store i64 %27, ptr %4, align 8
  store i32 1, ptr %9, align 4
  br label %28

28:                                               ; preds = %26, %18
  call void @llvm.lifetime.end.p0(i64 8, ptr %8) #10
  %29 = load i64, ptr %4, align 8
  ret i64 %29
}

; Function Attrs: nounwind uwtable
define hidden void @mbedtls_sha256_free(ptr noundef %0) #0 {
  %2 = alloca ptr, align 8
  store ptr %0, ptr %2, align 8, !tbaa !3
  %3 = load ptr, ptr %2, align 8, !tbaa !3
  %4 = icmp eq ptr %3, null
  br i1 %4, label %5, label %6

5:                                                ; preds = %1
  br label %8

6:                                                ; preds = %1
  %7 = load ptr, ptr %2, align 8, !tbaa !3
  call void @mbedtls_platform_zeroize(ptr noundef %7, i64 noundef 108)
  br label %8

8:                                                ; preds = %6, %5
  ret void
}

; Function Attrs: nounwind uwtable
define hidden i32 @mbedtls_sha256_update(ptr noundef %0, ptr noundef %1, i64 noundef %2) #0 {
  %4 = alloca i32, align 4
  %5 = alloca ptr, align 8
  %6 = alloca ptr, align 8
  %7 = alloca i64, align 8
  %8 = alloca i32, align 4
  %9 = alloca i64, align 8
  %10 = alloca i32, align 4
  %11 = alloca i32, align 4
  %12 = alloca i64, align 8
  store ptr %0, ptr %5, align 8, !tbaa !3
  store ptr %1, ptr %6, align 8, !tbaa !14
  store i64 %2, ptr %7, align 8, !tbaa !26
  call void @llvm.lifetime.start.p0(i64 4, ptr %8) #10
  store i32 -110, ptr %8, align 4, !tbaa !10
  call void @llvm.lifetime.start.p0(i64 8, ptr %9) #10
  call void @llvm.lifetime.start.p0(i64 4, ptr %10) #10
  %13 = load i64, ptr %7, align 8, !tbaa !26
  %14 = icmp eq i64 %13, 0
  br i1 %14, label %15, label %16

15:                                               ; preds = %3
  store i32 0, ptr %4, align 4
  store i32 1, ptr %11, align 4
  br label %116

16:                                               ; preds = %3
  %17 = load ptr, ptr %5, align 8, !tbaa !3
  %18 = getelementptr inbounds nuw %struct.mbedtls_sha256_context, ptr %17, i32 0, i32 1
  %19 = getelementptr inbounds [2 x i32], ptr %18, i64 0, i64 0
  %20 = load i32, ptr %19, align 4, !tbaa !10
  %21 = and i32 %20, 63
  store i32 %21, ptr %10, align 4, !tbaa !10
  %22 = load i32, ptr %10, align 4, !tbaa !10
  %23 = sub i32 64, %22
  %24 = zext i32 %23 to i64
  store i64 %24, ptr %9, align 8, !tbaa !26
  %25 = load i64, ptr %7, align 8, !tbaa !26
  %26 = trunc i64 %25 to i32
  %27 = load ptr, ptr %5, align 8, !tbaa !3
  %28 = getelementptr inbounds nuw %struct.mbedtls_sha256_context, ptr %27, i32 0, i32 1
  %29 = getelementptr inbounds [2 x i32], ptr %28, i64 0, i64 0
  %30 = load i32, ptr %29, align 4, !tbaa !10
  %31 = add i32 %30, %26
  store i32 %31, ptr %29, align 4, !tbaa !10
  %32 = load ptr, ptr %5, align 8, !tbaa !3
  %33 = getelementptr inbounds nuw %struct.mbedtls_sha256_context, ptr %32, i32 0, i32 1
  %34 = getelementptr inbounds [2 x i32], ptr %33, i64 0, i64 0
  %35 = load i32, ptr %34, align 4, !tbaa !10
  %36 = and i32 %35, -1
  store i32 %36, ptr %34, align 4, !tbaa !10
  %37 = load ptr, ptr %5, align 8, !tbaa !3
  %38 = getelementptr inbounds nuw %struct.mbedtls_sha256_context, ptr %37, i32 0, i32 1
  %39 = getelementptr inbounds [2 x i32], ptr %38, i64 0, i64 0
  %40 = load i32, ptr %39, align 4, !tbaa !10
  %41 = load i64, ptr %7, align 8, !tbaa !26
  %42 = trunc i64 %41 to i32
  %43 = icmp ult i32 %40, %42
  br i1 %43, label %44, label %50

44:                                               ; preds = %16
  %45 = load ptr, ptr %5, align 8, !tbaa !3
  %46 = getelementptr inbounds nuw %struct.mbedtls_sha256_context, ptr %45, i32 0, i32 1
  %47 = getelementptr inbounds [2 x i32], ptr %46, i64 0, i64 1
  %48 = load i32, ptr %47, align 4, !tbaa !10
  %49 = add i32 %48, 1
  store i32 %49, ptr %47, align 4, !tbaa !10
  br label %50

50:                                               ; preds = %44, %16
  %51 = load i32, ptr %10, align 4, !tbaa !10
  %52 = icmp ne i32 %51, 0
  br i1 %52, label %53, label %81

53:                                               ; preds = %50
  %54 = load i64, ptr %7, align 8, !tbaa !26
  %55 = load i64, ptr %9, align 8, !tbaa !26
  %56 = icmp uge i64 %54, %55
  br i1 %56, label %57, label %81

57:                                               ; preds = %53
  %58 = load ptr, ptr %5, align 8, !tbaa !3
  %59 = getelementptr inbounds nuw %struct.mbedtls_sha256_context, ptr %58, i32 0, i32 0
  %60 = getelementptr inbounds [64 x i8], ptr %59, i64 0, i64 0
  %61 = load i32, ptr %10, align 4, !tbaa !10
  %62 = zext i32 %61 to i64
  %63 = getelementptr inbounds nuw i8, ptr %60, i64 %62
  %64 = load ptr, ptr %6, align 8, !tbaa !14
  %65 = load i64, ptr %9, align 8, !tbaa !26
  call void @llvm.memcpy.p0.p0.i64(ptr align 1 %63, ptr align 1 %64, i64 %65, i1 false)
  %66 = load ptr, ptr %5, align 8, !tbaa !3
  %67 = load ptr, ptr %5, align 8, !tbaa !3
  %68 = getelementptr inbounds nuw %struct.mbedtls_sha256_context, ptr %67, i32 0, i32 0
  %69 = getelementptr inbounds [64 x i8], ptr %68, i64 0, i64 0
  %70 = call i32 @mbedtls_internal_sha256_process(ptr noundef %66, ptr noundef %69)
  store i32 %70, ptr %8, align 4, !tbaa !10
  %71 = icmp ne i32 %70, 0
  br i1 %71, label %72, label %74

72:                                               ; preds = %57
  %73 = load i32, ptr %8, align 4, !tbaa !10
  store i32 %73, ptr %4, align 4
  store i32 1, ptr %11, align 4
  br label %116

74:                                               ; preds = %57
  %75 = load i64, ptr %9, align 8, !tbaa !26
  %76 = load ptr, ptr %6, align 8, !tbaa !14
  %77 = getelementptr inbounds nuw i8, ptr %76, i64 %75
  store ptr %77, ptr %6, align 8, !tbaa !14
  %78 = load i64, ptr %9, align 8, !tbaa !26
  %79 = load i64, ptr %7, align 8, !tbaa !26
  %80 = sub i64 %79, %78
  store i64 %80, ptr %7, align 8, !tbaa !26
  store i32 0, ptr %10, align 4, !tbaa !10
  br label %81

81:                                               ; preds = %74, %53, %50
  br label %82

82:                                               ; preds = %102, %81
  %83 = load i64, ptr %7, align 8, !tbaa !26
  %84 = icmp uge i64 %83, 64
  br i1 %84, label %85, label %103

85:                                               ; preds = %82
  call void @llvm.lifetime.start.p0(i64 8, ptr %12) #10
  %86 = load ptr, ptr %5, align 8, !tbaa !3
  %87 = load ptr, ptr %6, align 8, !tbaa !14
  %88 = load i64, ptr %7, align 8, !tbaa !26
  %89 = call i64 @mbedtls_internal_sha256_process_many(ptr noundef %86, ptr noundef %87, i64 noundef %88)
  store i64 %89, ptr %12, align 8, !tbaa !26
  %90 = load i64, ptr %12, align 8, !tbaa !26
  %91 = icmp ult i64 %90, 64
  br i1 %91, label %92, label %93

92:                                               ; preds = %85
  store i32 -1, ptr %4, align 4
  store i32 1, ptr %11, align 4
  br label %100

93:                                               ; preds = %85
  %94 = load i64, ptr %12, align 8, !tbaa !26
  %95 = load ptr, ptr %6, align 8, !tbaa !14
  %96 = getelementptr inbounds nuw i8, ptr %95, i64 %94
  store ptr %96, ptr %6, align 8, !tbaa !14
  %97 = load i64, ptr %12, align 8, !tbaa !26
  %98 = load i64, ptr %7, align 8, !tbaa !26
  %99 = sub i64 %98, %97
  store i64 %99, ptr %7, align 8, !tbaa !26
  store i32 0, ptr %11, align 4
  br label %100

100:                                              ; preds = %93, %92
  call void @llvm.lifetime.end.p0(i64 8, ptr %12) #10
  %101 = load i32, ptr %11, align 4
  switch i32 %101, label %116 [
    i32 0, label %102
  ]

102:                                              ; preds = %100
  br label %82, !llvm.loop !28

103:                                              ; preds = %82
  %104 = load i64, ptr %7, align 8, !tbaa !26
  %105 = icmp ugt i64 %104, 0
  br i1 %105, label %106, label %115

106:                                              ; preds = %103
  %107 = load ptr, ptr %5, align 8, !tbaa !3
  %108 = getelementptr inbounds nuw %struct.mbedtls_sha256_context, ptr %107, i32 0, i32 0
  %109 = getelementptr inbounds [64 x i8], ptr %108, i64 0, i64 0
  %110 = load i32, ptr %10, align 4, !tbaa !10
  %111 = zext i32 %110 to i64
  %112 = getelementptr inbounds nuw i8, ptr %109, i64 %111
  %113 = load ptr, ptr %6, align 8, !tbaa !14
  %114 = load i64, ptr %7, align 8, !tbaa !26
  call void @llvm.memcpy.p0.p0.i64(ptr align 1 %112, ptr align 1 %113, i64 %114, i1 false)
  br label %115

115:                                              ; preds = %106, %103
  store i32 0, ptr %4, align 4
  store i32 1, ptr %11, align 4
  br label %116

116:                                              ; preds = %115, %100, %72, %15
  call void @llvm.lifetime.end.p0(i64 4, ptr %10) #10
  call void @llvm.lifetime.end.p0(i64 8, ptr %9) #10
  call void @llvm.lifetime.end.p0(i64 4, ptr %8) #10
  %117 = load i32, ptr %4, align 4
  ret i32 %117
}

; Function Attrs: nounwind uwtable
define hidden i32 @mbedtls_sha256_starts(ptr noundef %0, i32 noundef %1) #0 {
  %3 = alloca i32, align 4
  %4 = alloca ptr, align 8
  %5 = alloca i32, align 4
  store ptr %0, ptr %4, align 8, !tbaa !3
  store i32 %1, ptr %5, align 4, !tbaa !10
  %6 = load i32, ptr %5, align 4, !tbaa !10
  %7 = icmp ne i32 %6, 0
  br i1 %7, label %8, label %12

8:                                                ; preds = %2
  %9 = load i32, ptr %5, align 4, !tbaa !10
  %10 = icmp ne i32 %9, 1
  br i1 %10, label %11, label %12

11:                                               ; preds = %8
  store i32 -116, ptr %3, align 4
  br label %75

12:                                               ; preds = %8, %2
  %13 = load ptr, ptr %4, align 8, !tbaa !3
  %14 = getelementptr inbounds nuw %struct.mbedtls_sha256_context, ptr %13, i32 0, i32 1
  %15 = getelementptr inbounds [2 x i32], ptr %14, i64 0, i64 0
  store i32 0, ptr %15, align 4, !tbaa !10
  %16 = load ptr, ptr %4, align 8, !tbaa !3
  %17 = getelementptr inbounds nuw %struct.mbedtls_sha256_context, ptr %16, i32 0, i32 1
  %18 = getelementptr inbounds [2 x i32], ptr %17, i64 0, i64 1
  store i32 0, ptr %18, align 4, !tbaa !10
  %19 = load i32, ptr %5, align 4, !tbaa !10
  %20 = icmp eq i32 %19, 0
  br i1 %20, label %21, label %46

21:                                               ; preds = %12
  %22 = load ptr, ptr %4, align 8, !tbaa !3
  %23 = getelementptr inbounds nuw %struct.mbedtls_sha256_context, ptr %22, i32 0, i32 2
  %24 = getelementptr inbounds [8 x i32], ptr %23, i64 0, i64 0
  store i32 1779033703, ptr %24, align 4, !tbaa !10
  %25 = load ptr, ptr %4, align 8, !tbaa !3
  %26 = getelementptr inbounds nuw %struct.mbedtls_sha256_context, ptr %25, i32 0, i32 2
  %27 = getelementptr inbounds [8 x i32], ptr %26, i64 0, i64 1
  store i32 -1150833019, ptr %27, align 4, !tbaa !10
  %28 = load ptr, ptr %4, align 8, !tbaa !3
  %29 = getelementptr inbounds nuw %struct.mbedtls_sha256_context, ptr %28, i32 0, i32 2
  %30 = getelementptr inbounds [8 x i32], ptr %29, i64 0, i64 2
  store i32 1013904242, ptr %30, align 4, !tbaa !10
  %31 = load ptr, ptr %4, align 8, !tbaa !3
  %32 = getelementptr inbounds nuw %struct.mbedtls_sha256_context, ptr %31, i32 0, i32 2
  %33 = getelementptr inbounds [8 x i32], ptr %32, i64 0, i64 3
  store i32 -1521486534, ptr %33, align 4, !tbaa !10
  %34 = load ptr, ptr %4, align 8, !tbaa !3
  %35 = getelementptr inbounds nuw %struct.mbedtls_sha256_context, ptr %34, i32 0, i32 2
  %36 = getelementptr inbounds [8 x i32], ptr %35, i64 0, i64 4
  store i32 1359893119, ptr %36, align 4, !tbaa !10
  %37 = load ptr, ptr %4, align 8, !tbaa !3
  %38 = getelementptr inbounds nuw %struct.mbedtls_sha256_context, ptr %37, i32 0, i32 2
  %39 = getelementptr inbounds [8 x i32], ptr %38, i64 0, i64 5
  store i32 -1694144372, ptr %39, align 4, !tbaa !10
  %40 = load ptr, ptr %4, align 8, !tbaa !3
  %41 = getelementptr inbounds nuw %struct.mbedtls_sha256_context, ptr %40, i32 0, i32 2
  %42 = getelementptr inbounds [8 x i32], ptr %41, i64 0, i64 6
  store i32 528734635, ptr %42, align 4, !tbaa !10
  %43 = load ptr, ptr %4, align 8, !tbaa !3
  %44 = getelementptr inbounds nuw %struct.mbedtls_sha256_context, ptr %43, i32 0, i32 2
  %45 = getelementptr inbounds [8 x i32], ptr %44, i64 0, i64 7
  store i32 1541459225, ptr %45, align 4, !tbaa !10
  br label %71

46:                                               ; preds = %12
  %47 = load ptr, ptr %4, align 8, !tbaa !3
  %48 = getelementptr inbounds nuw %struct.mbedtls_sha256_context, ptr %47, i32 0, i32 2
  %49 = getelementptr inbounds [8 x i32], ptr %48, i64 0, i64 0
  store i32 -1056596264, ptr %49, align 4, !tbaa !10
  %50 = load ptr, ptr %4, align 8, !tbaa !3
  %51 = getelementptr inbounds nuw %struct.mbedtls_sha256_context, ptr %50, i32 0, i32 2
  %52 = getelementptr inbounds [8 x i32], ptr %51, i64 0, i64 1
  store i32 914150663, ptr %52, align 4, !tbaa !10
  %53 = load ptr, ptr %4, align 8, !tbaa !3
  %54 = getelementptr inbounds nuw %struct.mbedtls_sha256_context, ptr %53, i32 0, i32 2
  %55 = getelementptr inbounds [8 x i32], ptr %54, i64 0, i64 2
  store i32 812702999, ptr %55, align 4, !tbaa !10
  %56 = load ptr, ptr %4, align 8, !tbaa !3
  %57 = getelementptr inbounds nuw %struct.mbedtls_sha256_context, ptr %56, i32 0, i32 2
  %58 = getelementptr inbounds [8 x i32], ptr %57, i64 0, i64 3
  store i32 -150054599, ptr %58, align 4, !tbaa !10
  %59 = load ptr, ptr %4, align 8, !tbaa !3
  %60 = getelementptr inbounds nuw %struct.mbedtls_sha256_context, ptr %59, i32 0, i32 2
  %61 = getelementptr inbounds [8 x i32], ptr %60, i64 0, i64 4
  store i32 -4191439, ptr %61, align 4, !tbaa !10
  %62 = load ptr, ptr %4, align 8, !tbaa !3
  %63 = getelementptr inbounds nuw %struct.mbedtls_sha256_context, ptr %62, i32 0, i32 2
  %64 = getelementptr inbounds [8 x i32], ptr %63, i64 0, i64 5
  store i32 1750603025, ptr %64, align 4, !tbaa !10
  %65 = load ptr, ptr %4, align 8, !tbaa !3
  %66 = getelementptr inbounds nuw %struct.mbedtls_sha256_context, ptr %65, i32 0, i32 2
  %67 = getelementptr inbounds [8 x i32], ptr %66, i64 0, i64 6
  store i32 1694076839, ptr %67, align 4, !tbaa !10
  %68 = load ptr, ptr %4, align 8, !tbaa !3
  %69 = getelementptr inbounds nuw %struct.mbedtls_sha256_context, ptr %68, i32 0, i32 2
  %70 = getelementptr inbounds [8 x i32], ptr %69, i64 0, i64 7
  store i32 -1090891868, ptr %70, align 4, !tbaa !10
  br label %71

71:                                               ; preds = %46, %21
  %72 = load i32, ptr %5, align 4, !tbaa !10
  %73 = load ptr, ptr %4, align 8, !tbaa !3
  %74 = getelementptr inbounds nuw %struct.mbedtls_sha256_context, ptr %73, i32 0, i32 3
  store i32 %72, ptr %74, align 4, !tbaa !12
  store i32 0, ptr %3, align 4
  br label %75

75:                                               ; preds = %71, %11
  %76 = load i32, ptr %3, align 4
  ret i32 %76
}

; Function Attrs: nounwind uwtable
define hidden void @mbedtls_sha256_init(ptr noundef %0) #0 {
  %2 = alloca ptr, align 8
  store ptr %0, ptr %2, align 8, !tbaa !3
  %3 = load ptr, ptr %2, align 8, !tbaa !3
  call void @llvm.memset.p0.i64(ptr align 4 %3, i8 0, i64 108, i1 false)
  ret void
}

; Function Attrs: nounwind uwtable
define hidden i32 @mbedtls_sha256(ptr noundef %0, i64 noundef %1, ptr noundef %2, i32 noundef %3) #0 {
  %5 = alloca i32, align 4
  %6 = alloca ptr, align 8
  %7 = alloca i64, align 8
  %8 = alloca ptr, align 8
  %9 = alloca i32, align 4
  %10 = alloca i32, align 4
  %11 = alloca %struct.mbedtls_sha256_context, align 4
  %12 = alloca i32, align 4
  store ptr %0, ptr %6, align 8, !tbaa !14
  store i64 %1, ptr %7, align 8, !tbaa !26
  store ptr %2, ptr %8, align 8, !tbaa !14
  store i32 %3, ptr %9, align 4, !tbaa !10
  call void @llvm.lifetime.start.p0(i64 4, ptr %10) #10
  store i32 -110, ptr %10, align 4, !tbaa !10
  call void @llvm.lifetime.start.p0(i64 108, ptr %11) #10
  %13 = load i32, ptr %9, align 4, !tbaa !10
  %14 = icmp ne i32 %13, 0
  br i1 %14, label %15, label %19

15:                                               ; preds = %4
  %16 = load i32, ptr %9, align 4, !tbaa !10
  %17 = icmp ne i32 %16, 1
  br i1 %17, label %18, label %19

18:                                               ; preds = %15
  store i32 -116, ptr %5, align 4
  store i32 1, ptr %12, align 4
  br label %38

19:                                               ; preds = %15, %4
  call void @mbedtls_sha256_init(ptr noundef %11)
  %20 = load i32, ptr %9, align 4, !tbaa !10
  %21 = call i32 @mbedtls_sha256_starts(ptr noundef %11, i32 noundef %20)
  store i32 %21, ptr %10, align 4, !tbaa !10
  %22 = icmp ne i32 %21, 0
  br i1 %22, label %23, label %24

23:                                               ; preds = %19
  br label %36

24:                                               ; preds = %19
  %25 = load ptr, ptr %6, align 8, !tbaa !14
  %26 = load i64, ptr %7, align 8, !tbaa !26
  %27 = call i32 @mbedtls_sha256_update(ptr noundef %11, ptr noundef %25, i64 noundef %26)
  store i32 %27, ptr %10, align 4, !tbaa !10
  %28 = icmp ne i32 %27, 0
  br i1 %28, label %29, label %30

29:                                               ; preds = %24
  br label %36

30:                                               ; preds = %24
  %31 = load ptr, ptr %8, align 8, !tbaa !14
  %32 = call i32 @mbedtls_sha256_finish(ptr noundef %11, ptr noundef %31)
  store i32 %32, ptr %10, align 4, !tbaa !10
  %33 = icmp ne i32 %32, 0
  br i1 %33, label %34, label %35

34:                                               ; preds = %30
  br label %36

35:                                               ; preds = %30
  br label %36

36:                                               ; preds = %35, %34, %29, %23
  call void @mbedtls_sha256_free(ptr noundef %11)
  %37 = load i32, ptr %10, align 4, !tbaa !10
  store i32 %37, ptr %5, align 4
  store i32 1, ptr %12, align 4
  br label %38

38:                                               ; preds = %36, %18
  call void @llvm.lifetime.end.p0(i64 108, ptr %11) #10
  call void @llvm.lifetime.end.p0(i64 4, ptr %10) #10
  %39 = load i32, ptr %5, align 4
  ret i32 %39
}