; Function Attrs: nounwind uwtable
define hidden range(i32 -116, 1) i32 @mbedtls_sha256(ptr noundef readonly captures(none) %0, i64 noundef %1, ptr noundef writeonly captures(none) %2, i32 noundef %3) local_unnamed_addr #2 {
  %5 = alloca %struct.mbedtls_sha256_context, align 4
  call void @llvm.lifetime.start.p0(i64 108, ptr nonnull %5) #14
  %or.cond = icmp ugt i32 %3, 1
  br i1 %or.cond, label %35, label %6

6:                                                ; preds = %4
  %7 = getelementptr inbounds nuw i8, ptr %5, i64 64
  %8 = icmp eq i32 %3, 0
  call void @llvm.memset.p0.i64(ptr noundef nonnull align 4 dereferenceable(72) %5, i8 0, i64 72, i1 false)
  br i1 %8, label %10, label %9

9:                                                ; preds = %6
  br label %10

10:                                               ; preds = %9, %6
  %.sink30.i = phi i32 [ -1056596264, %9 ], [ 1779033703, %6 ]
  %.sink29.i = phi i32 [ 914150663, %9 ], [ -1150833019, %6 ]
  %.sink28.i = phi i32 [ 812702999, %9 ], [ 1013904242, %6 ]
  %.sink27.i = phi i32 [ -150054599, %9 ], [ -1521486534, %6 ]
  %.sink26.i = phi i32 [ -4191439, %9 ], [ 1359893119, %6 ]
  %.sink25.i = phi i32 [ 1750603025, %9 ], [ -1694144372, %6 ]
  %.sink24.i = phi i32 [ 1694076839, %9 ], [ 528734635, %6 ]
  %.sink.i = phi i32 [ -1090891868, %9 ], [ 1541459225, %6 ]
  %11 = getelementptr inbounds nuw i8, ptr %5, i64 72
  store i32 %.sink30.i, ptr %11, align 4, !tbaa !7
  %12 = getelementptr inbounds nuw i8, ptr %5, i64 76
  store i32 %.sink29.i, ptr %12, align 4, !tbaa !7
  %13 = getelementptr inbounds nuw i8, ptr %5, i64 80
  store i32 %.sink28.i, ptr %13, align 4, !tbaa !7
  %14 = getelementptr inbounds nuw i8, ptr %5, i64 84
  store i32 %.sink27.i, ptr %14, align 4, !tbaa !7
  %15 = getelementptr inbounds nuw i8, ptr %5, i64 88
  store i32 %.sink26.i, ptr %15, align 4, !tbaa !7
  %16 = getelementptr inbounds nuw i8, ptr %5, i64 92
  store i32 %.sink25.i, ptr %16, align 4, !tbaa !7
  %17 = getelementptr inbounds nuw i8, ptr %5, i64 96
  store i32 %.sink24.i, ptr %17, align 4, !tbaa !7
  %18 = getelementptr inbounds nuw i8, ptr %5, i64 100
  store i32 %.sink.i, ptr %18, align 4, !tbaa !7
  %19 = getelementptr inbounds nuw i8, ptr %5, i64 104
  store i32 %3, ptr %19, align 4, !tbaa !9
  %20 = icmp eq i64 %1, 0
  br i1 %20, label %33, label %21

21:                                               ; preds = %10
  %22 = trunc i64 %1 to i32
  store i32 %22, ptr %7, align 4, !tbaa !7
  %23 = icmp ugt i64 %1, 63
  br i1 %23, label %.preheader.i, label %._crit_edge.thread.i

.preheader.i:                                     ; preds = %21, %mbedtls_internal_sha256_process_many.exit.i
  %.14155.i = phi ptr [ %30, %mbedtls_internal_sha256_process_many.exit.i ], [ %0, %21 ]
  %.14454.i = phi i64 [ %31, %mbedtls_internal_sha256_process_many.exit.i ], [ %1, %21 ]
  br label %24

24:                                               ; preds = %24, %.preheader.i
  %.012.i.i = phi i64 [ %28, %24 ], [ 0, %.preheader.i ]
  %.0711.i.i = phi i64 [ %27, %24 ], [ %.14454.i, %.preheader.i ]
  %.0810.i.i = phi ptr [ %26, %24 ], [ %.14155.i, %.preheader.i ]
  %25 = call i32 @mbedtls_internal_sha256_process(ptr noundef nonnull %5, ptr noundef %.0810.i.i)
  %26 = getelementptr inbounds nuw i8, ptr %.0810.i.i, i64 64
  %27 = add i64 %.0711.i.i, -64
  %28 = add nuw i64 %.012.i.i, 64
  %29 = icmp ugt i64 %27, 63
  br i1 %29, label %24, label %mbedtls_internal_sha256_process_many.exit.i, !llvm.loop !19

mbedtls_internal_sha256_process_many.exit.i:      ; preds = %24
  %30 = getelementptr inbounds nuw i8, ptr %.14155.i, i64 %28
  %31 = sub i64 %.14454.i, %28
  %32 = icmp ugt i64 %31, 63
  br i1 %32, label %.preheader.i, label %._crit_edge.i, !llvm.loop !20

._crit_edge.i:                                    ; preds = %mbedtls_internal_sha256_process_many.exit.i
  %.not53.i = icmp eq i64 %31, 0
  br i1 %.not53.i, label %33, label %._crit_edge.thread.i

._crit_edge.thread.i:                             ; preds = %21, %._crit_edge.i
  %.141.lcssa.i20 = phi ptr [ %30, %._crit_edge.i ], [ %0, %21 ]
  %.144.lcssa.i19 = phi i64 [ %31, %._crit_edge.i ], [ %1, %21 ]
  call void @llvm.memcpy.p0.p0.i64(ptr nonnull align 4 %5, ptr align 1 %.141.lcssa.i20, i64 %.144.lcssa.i19, i1 false)
  br label %33

33:                                               ; preds = %10, %._crit_edge.i, %._crit_edge.thread.i
  %34 = call i32 @mbedtls_sha256_finish(ptr noundef nonnull %5, ptr noundef %2)
  call void @mbedtls_platform_zeroize(ptr noundef nonnull %5, i64 noundef 108) #14
  br label %35

35:                                               ; preds = %4, %33
  %.08 = phi i32 [ 0, %33 ], [ -116, %4 ]
  call void @llvm.lifetime.end.p0(i64 108, ptr nonnull %5) #14
  ret i32 %.08
}